target datalayout = "e-m:e-p270:32:32-p271:32:32-p272:64:64-i64:64-i128:128-f80:128-n8:16:32:64-S128"
target triple = "x86_64-pc-linux-gnu"

%struct.Mio_LibraryStruct_t_ = type { ptr, i32, ptr, ptr, ptr, ptr, ptr, ptr, ptr, ptr, ptr, ptr, ptr, ptr, ptr, ptr, i32, i32, i32, ptr, ptr, ptr, i32, ptr, ptr, ptr, ptr, [3 x ptr], [3 x ptr] }
%struct.Mio_GateStruct_t_ = type { ptr, double, ptr, ptr, ptr, ptr, ptr, ptr, i32, i32, i32, i32, double, ptr, ptr, %union.anon, i32 }
%union.anon = type { i64 }

; Function Attrs: nounwind uwtable
define ptr @Mio_LibraryReadGateByName(ptr noundef %0, ptr noundef %1, ptr noundef %2) #0 {
  %4 = alloca ptr, align 8
  %5 = alloca ptr, align 8
  %6 = alloca ptr, align 8
  %7 = alloca ptr, align 8
  %8 = alloca ptr, align 8
  %9 = alloca i32, align 4
  store ptr %0, ptr %5, align 8, !tbaa !3
  store ptr %1, ptr %6, align 8, !tbaa !46
  store ptr %2, ptr %7, align 8, !tbaa !46
  call void @llvm.lifetime.start.p0(i64 8, ptr %8) #6
  %10 = load ptr, ptr %5, align 8, !tbaa !3
  %11 = getelementptr inbounds nuw %struct.Mio_LibraryStruct_t_, ptr %10, i32 0, i32 13
  %12 = load ptr, ptr %11, align 8, !tbaa !51
  %13 = load ptr, ptr %6, align 8, !tbaa !46
  %14 = call i32 @st__lookup(ptr noundef %12, ptr noundef %13, ptr noundef %8)
  %15 = icmp ne i32 %14, 0
  br i1 %15, label %17, label %16

16:                                               ; preds = %3
  store ptr null, ptr %4, align 8
  store i32 1, ptr %9, align 4
  br label %50

17:                                               ; preds = %3
  %18 = load ptr, ptr %7, align 8, !tbaa !46
  %19 = icmp eq ptr %18, null
  br i1 %19, label %20, label %22

20:                                               ; preds = %17
  %21 = load ptr, ptr %8, align 8, !tbaa !28
  store ptr %21, ptr %4, align 8
  store i32 1, ptr %9, align 4
  br label %50

22:                                               ; preds = %17
  %23 = load ptr, ptr %8, align 8, !tbaa !28
  %24 = getelementptr inbounds nuw %struct.Mio_GateStruct_t_, ptr %23, i32 0, i32 4
  %25 = load ptr, ptr %24, align 8, !tbaa !52
  %26 = load ptr, ptr %7, align 8, !tbaa !46
  %27 = call i32 @strcmp(ptr noundef %25, ptr noundef %26) #7
  %28 = icmp ne i32 %27, 0
  br i1 %28, label %31, label %29

29:                                               ; preds = %22
  %30 = load ptr, ptr %8, align 8, !tbaa !28
  store ptr %30, ptr %4, align 8
  store i32 1, ptr %9, align 4
  br label %50

31:                                               ; preds = %22
  %32 = load ptr, ptr %8, align 8, !tbaa !28
  %33 = getelementptr inbounds nuw %struct.Mio_GateStruct_t_, ptr %32, i32 0, i32 7
  %34 = load ptr, ptr %33, align 8, !tbaa !53
  %35 = icmp ne ptr %34, null
  br i1 %35, label %36, label %49

36:                                               ; preds = %31
  %37 = load ptr, ptr %8, align 8, !tbaa !28
  %38 = getelementptr inbounds nuw %struct.Mio_GateStruct_t_, ptr %37, i32 0, i32 7
  %39 = load ptr, ptr %38, align 8, !tbaa !53
  %40 = getelementptr inbounds nuw %struct.Mio_GateStruct_t_, ptr %39, i32 0, i32 4
  %41 = load ptr, ptr %40, align 8, !tbaa !52
  %42 = load ptr, ptr %7, align 8, !tbaa !46
  %43 = call i32 @strcmp(ptr noundef %41, ptr noundef %42) #7
  %44 = icmp ne i32 %43, 0
  br i1 %44, label %49, label %45

45:                                               ; preds = %36
  %46 = load ptr, ptr %8, align 8, !tbaa !28
  %47 = getelementptr inbounds nuw %struct.Mio_GateStruct_t_, ptr %46, i32 0, i32 7
  %48 = load ptr, ptr %47, align 8, !tbaa !53
  store ptr %48, ptr %4, align 8
  store i32 1, ptr %9, align 4
  br label %50

49:                                               ; preds = %36, %31
  store ptr null, ptr %4, align 8
  store i32 1, ptr %9, align 4
  br label %50

50:                                               ; preds = %49, %45, %29, %20, %16
  call void @llvm.lifetime.end.p0(i64 8, ptr %8) #6
  %51 = load ptr, ptr %4, align 8
  ret ptr %51
}