; Function Attrs: nounwind uwtable
define ptr @Mio_LibraryReadGateByName(ptr noundef readonly captures(none) %0, ptr noundef %1, ptr noundef readonly %2) local_unnamed_addr #7 {
  %4 = alloca ptr, align 8
  call void @llvm.lifetime.start.p0(i64 8, ptr nonnull %4) #14
  %5 = getelementptr inbounds nuw i8, ptr %0, i64 104
  %6 = load ptr, ptr %5, align 8, !tbaa !48
  %7 = call i32 @st__lookup(ptr noundef %6, ptr noundef %1, ptr noundef nonnull %4) #14
  %.not = icmp eq i32 %7, 0
  br i1 %.not, label %23, label %8

8:                                                ; preds = %3
  %9 = icmp eq ptr %2, null
  %10 = load ptr, ptr %4, align 8, !tbaa !25
  br i1 %9, label %23, label %11

11:                                               ; preds = %8
  %12 = getelementptr inbounds nuw i8, ptr %10, i64 32
  %13 = load ptr, ptr %12, align 8, !tbaa !49
  %14 = call i32 @strcmp(ptr noundef nonnull dereferenceable(1) %13, ptr noundef nonnull dereferenceable(1) %2) #15
  %.not8 = icmp eq i32 %14, 0
  br i1 %.not8, label %23, label %15

15:                                               ; preds = %11
  %16 = getelementptr inbounds nuw i8, ptr %10, i64 56
  %17 = load ptr, ptr %16, align 8, !tbaa !50
  %.not9 = icmp eq ptr %17, null
  br i1 %.not9, label %22, label %18

18:                                               ; preds = %15
  %19 = getelementptr inbounds nuw i8, ptr %17, i64 32
  %20 = load ptr, ptr %19, align 8, !tbaa !49
  %21 = call i32 @strcmp(ptr noundef nonnull dereferenceable(1) %20, ptr noundef nonnull dereferenceable(1) %2) #15
  %.not10 = icmp eq i32 %21, 0
  br i1 %.not10, label %23, label %22

22:                                               ; preds = %18, %15
  br label %23

23:                                               ; preds = %8, %18, %11, %3, %22
  %.0 = phi ptr [ null, %22 ], [ null, %3 ], [ %10, %11 ], [ %17, %18 ], [ %10, %8 ]
  call void @llvm.lifetime.end.p0(i64 8, ptr nonnull %4) #14
  ret ptr %.0
}